target datalayout = "e-m:e-p270:32:32-p271:32:32-p272:64:64-i64:64-i128:128-f80:128-n8:16:32:64-S128"
target triple = "x86_64-pc-linux-gnu"

%struct.FFOutputFormat = type { %struct.AVOutputFormat, i32, i32, ptr, ptr, ptr, ptr, ptr, ptr, ptr, ptr, ptr, ptr, ptr, ptr }
%struct.AVOutputFormat = type { ptr, ptr, ptr, ptr, i32, i32, i32, i32, ptr, ptr }
%struct.WvHeader = type { i32, i16, i32, i32, i32, i32, i32, i32, i32 }
%struct.AVFormatContext = type { ptr, ptr, ptr, ptr, ptr, i32, i32, ptr, i32, ptr, i32, ptr, ptr, i64, i64, i64, i32, i32, i32, i64, i64, ptr, i32, i32, ptr, i32, i32, i32, i32, ptr, i64, i32, i32, %struct.AVIOInterruptCB, i32, i32, i32, i32, i64, i32, i32, i32, i32, i32, i32, i32, i32, i32, i32, i32, i32, i64, i32, i32, i32, i32, i32, ptr, ptr, ptr, ptr, i32, ptr, ptr, ptr, ptr, i32, ptr, ptr, i64, ptr, ptr, ptr, i64 }
%struct.AVIOInterruptCB = type { ptr, ptr }
%struct.AVPacket = type { ptr, i64, i64, ptr, i32, i32, i32, ptr, i32, i64, i64, ptr, ptr, %struct.AVRational }
%struct.AVRational = type { i32, i32 }
%struct.WvMuxContext = type { i64 }
%struct.AVIOContext = type { ptr, ptr, i32, ptr, ptr, ptr, ptr, ptr, ptr, i64, i32, i32, i32, i32, i32, i64, ptr, ptr, ptr, ptr, i32, i32, ptr, ptr, ptr, i32, ptr, i64, i64 }

@.str = private unnamed_addr constant [3 x i8] c"wv\00", align 1
@.str.1 = private unnamed_addr constant [12 x i8] c"raw WavPack\00", align 1
@.str.2 = private unnamed_addr constant [16 x i8] c"audio/x-wavpack\00", align 1
@ff_wv_muxer = constant %struct.FFOutputFormat { %struct.AVOutputFormat { ptr @.str, ptr @.str.1, ptr @.str.2, ptr @.str, i32 86041, i32 0, i32 0, i32 128, ptr null, ptr null }, i32 8, i32 12, ptr null, ptr @wv_write_packet, ptr @wv_write_trailer, ptr null, ptr null, ptr null, ptr null, ptr null, ptr null, ptr null, ptr null, ptr null }, align 8
@.str.3 = private unnamed_addr constant [25 x i8] c"Invalid WavPack packet.\0A\00", align 1

; Function Attrs: nounwind uwtable
define internal i32 @wv_write_packet(ptr noundef %0, ptr noundef %1) #0 {
  %3 = alloca i32, align 4
  %4 = alloca ptr, align 8
  %5 = alloca ptr, align 8
  %6 = alloca ptr, align 8
  %7 = alloca %struct.WvHeader, align 4
  %8 = alloca i32, align 4
  %9 = alloca i32, align 4
  store ptr %0, ptr %4, align 8, !tbaa !4
  store ptr %1, ptr %5, align 8, !tbaa !9
  call void @llvm.lifetime.start.p0(i64 8, ptr %6) #5
  %10 = load ptr, ptr %4, align 8, !tbaa !4
  %11 = getelementptr inbounds nuw %struct.AVFormatContext, ptr %10, i32 0, i32 3
  %12 = load ptr, ptr %11, align 8, !tbaa !11
  store ptr %12, ptr %6, align 8, !tbaa !28
  call void @llvm.lifetime.start.p0(i64 36, ptr %7) #5
  call void @llvm.lifetime.start.p0(i64 4, ptr %8) #5
  %13 = load ptr, ptr %5, align 8, !tbaa !9
  %14 = getelementptr inbounds nuw %struct.AVPacket, ptr %13, i32 0, i32 4
  %15 = load i32, ptr %14, align 8, !tbaa !30
  %16 = icmp slt i32 %15, 32
  br i1 %16, label %23, label %17

17:                                               ; preds = %2
  %18 = load ptr, ptr %5, align 8, !tbaa !9
  %19 = getelementptr inbounds nuw %struct.AVPacket, ptr %18, i32 0, i32 3
  %20 = load ptr, ptr %19, align 8, !tbaa !35
  %21 = call i32 @ff_wv_parse_header(ptr noundef %7, ptr noundef %20)
  store i32 %21, ptr %8, align 4, !tbaa !36
  %22 = icmp slt i32 %21, 0
  br i1 %22, label %23, label %25

23:                                               ; preds = %17, %2
  %24 = load ptr, ptr %4, align 8, !tbaa !4
  call void (ptr, i32, ptr, ...) @av_log(ptr noundef %24, i32 noundef 16, ptr noundef @.str.3)
  store i32 -22, ptr %3, align 4
  store i32 1, ptr %9, align 4
  br label %42

25:                                               ; preds = %17
  %26 = getelementptr inbounds nuw %struct.WvHeader, ptr %7, i32 0, i32 4
  %27 = load i32, ptr %26, align 4, !tbaa !37
  %28 = zext i32 %27 to i64
  %29 = load ptr, ptr %6, align 8, !tbaa !28
  %30 = getelementptr inbounds nuw %struct.WvMuxContext, ptr %29, i32 0, i32 0
  %31 = load i64, ptr %30, align 8, !tbaa !40
  %32 = add nsw i64 %31, %28
  store i64 %32, ptr %30, align 8, !tbaa !40
  %33 = load ptr, ptr %4, align 8, !tbaa !4
  %34 = getelementptr inbounds nuw %struct.AVFormatContext, ptr %33, i32 0, i32 4
  %35 = load ptr, ptr %34, align 8, !tbaa !42
  %36 = load ptr, ptr %5, align 8, !tbaa !9
  %37 = getelementptr inbounds nuw %struct.AVPacket, ptr %36, i32 0, i32 3
  %38 = load ptr, ptr %37, align 8, !tbaa !35
  %39 = load ptr, ptr %5, align 8, !tbaa !9
  %40 = getelementptr inbounds nuw %struct.AVPacket, ptr %39, i32 0, i32 4
  %41 = load i32, ptr %40, align 8, !tbaa !30
  call void @avio_write(ptr noundef %35, ptr noundef %38, i32 noundef %41)
  store i32 0, ptr %3, align 4
  store i32 1, ptr %9, align 4
  br label %42

42:                                               ; preds = %25, %23
  call void @llvm.lifetime.end.p0(i64 4, ptr %8) #5
  call void @llvm.lifetime.end.p0(i64 36, ptr %7) #5
  call void @llvm.lifetime.end.p0(i64 8, ptr %6) #5
  %43 = load i32, ptr %3, align 4
  ret i32 %43
}

; Function Attrs: cold nounwind optsize uwtable
define internal i32 @wv_write_trailer(ptr noundef %0) #1 {
  %2 = alloca ptr, align 8
  %3 = alloca ptr, align 8
  %4 = alloca i64, align 8
  store ptr %0, ptr %2, align 8, !tbaa !4
  call void @llvm.lifetime.start.p0(i64 8, ptr %3) #5
  %5 = load ptr, ptr %2, align 8, !tbaa !4
  %6 = getelementptr inbounds nuw %struct.AVFormatContext, ptr %5, i32 0, i32 3
  %7 = load ptr, ptr %6, align 8, !tbaa !11
  store ptr %7, ptr %3, align 8, !tbaa !28
  %8 = load ptr, ptr %2, align 8, !tbaa !4
  %9 = getelementptr inbounds nuw %struct.AVFormatContext, ptr %8, i32 0, i32 4
  %10 = load ptr, ptr %9, align 8, !tbaa !42
  %11 = getelementptr inbounds nuw %struct.AVIOContext, ptr %10, i32 0, i32 20
  %12 = load i32, ptr %11, align 8, !tbaa !43
  %13 = and i32 %12, 1
  %14 = icmp ne i32 %13, 0
  br i1 %14, label %15, label %46

15:                                               ; preds = %1
  %16 = load ptr, ptr %3, align 8, !tbaa !28
  %17 = getelementptr inbounds nuw %struct.WvMuxContext, ptr %16, i32 0, i32 0
  %18 = load i64, ptr %17, align 8, !tbaa !40
  %19 = icmp ne i64 %18, 0
  br i1 %19, label %20, label %46

20:                                               ; preds = %15
  %21 = load ptr, ptr %3, align 8, !tbaa !28
  %22 = getelementptr inbounds nuw %struct.WvMuxContext, ptr %21, i32 0, i32 0
  %23 = load i64, ptr %22, align 8, !tbaa !40
  %24 = icmp slt i64 %23, 4294967295
  br i1 %24, label %25, label %46

25:                                               ; preds = %20
  call void @llvm.lifetime.start.p0(i64 8, ptr %4) #5
  %26 = load ptr, ptr %2, align 8, !tbaa !4
  %27 = getelementptr inbounds nuw %struct.AVFormatContext, ptr %26, i32 0, i32 4
  %28 = load ptr, ptr %27, align 8, !tbaa !42
  %29 = call i64 @avio_tell(ptr noundef %28)
  store i64 %29, ptr %4, align 8, !tbaa !45
  %30 = load ptr, ptr %2, align 8, !tbaa !4
  %31 = getelementptr inbounds nuw %struct.AVFormatContext, ptr %30, i32 0, i32 4
  %32 = load ptr, ptr %31, align 8, !tbaa !42
  %33 = call i64 @avio_seek(ptr noundef %32, i64 noundef 12, i32 noundef 0)
  %34 = load ptr, ptr %2, align 8, !tbaa !4
  %35 = getelementptr inbounds nuw %struct.AVFormatContext, ptr %34, i32 0, i32 4
  %36 = load ptr, ptr %35, align 8, !tbaa !42
  %37 = load ptr, ptr %3, align 8, !tbaa !28
  %38 = getelementptr inbounds nuw %struct.WvMuxContext, ptr %37, i32 0, i32 0
  %39 = load i64, ptr %38, align 8, !tbaa !40
  %40 = trunc i64 %39 to i32
  call void @avio_wl32(ptr noundef %36, i32 noundef %40)
  %41 = load ptr, ptr %2, align 8, !tbaa !4
  %42 = getelementptr inbounds nuw %struct.AVFormatContext, ptr %41, i32 0, i32 4
  %43 = load ptr, ptr %42, align 8, !tbaa !42
  %44 = load i64, ptr %4, align 8, !tbaa !45
  %45 = call i64 @avio_seek(ptr noundef %43, i64 noundef %44, i32 noundef 0)
  call void @llvm.lifetime.end.p0(i64 8, ptr %4) #5
  br label %46

46:                                               ; preds = %25, %20, %15, %1
  %47 = load ptr, ptr %2, align 8, !tbaa !4
  %48 = call i32 @ff_ape_write_tag(ptr noundef %47)
  call void @llvm.lifetime.end.p0(i64 8, ptr %3) #5
  ret i32 0
}

; Function Attrs: nocallback nofree nosync nounwind willreturn memory(argmem: readwrite)
declare void @llvm.lifetime.start.p0(i64 immarg, ptr captures(none)) #2

declare i32 @ff_wv_parse_header(ptr noundef, ptr noundef) #3

declare void @av_log(ptr noundef, i32 noundef, ptr noundef, ...) #3

declare void @avio_write(ptr noundef, ptr noundef, i32 noundef) #3

; Function Attrs: nocallback nofree nosync nounwind willreturn memory(argmem: readwrite)
declare void @llvm.lifetime.end.p0(i64 immarg, ptr captures(none)) #2

; Function Attrs: alwaysinline nounwind uwtable
define internal i64 @avio_tell(ptr noundef %0) #4 {
  %2 = alloca ptr, align 8
  store ptr %0, ptr %2, align 8, !tbaa !46
  %3 = load ptr, ptr %2, align 8, !tbaa !46
  %4 = call i64 @avio_seek(ptr noundef %3, i64 noundef 0, i32 noundef 1)
  ret i64 %4
}

declare i64 @avio_seek(ptr noundef, i64 noundef, i32 noundef) #3

declare void @avio_wl32(ptr noundef, i32 noundef) #3

declare i32 @ff_ape_write_tag(ptr noundef) #3


!llvm.module.flags = !{!0, !1, !2, !3}

!0 = !{i32 1, !"wchar_size", i32 4}
!1 = !{i32 8, !"PIC Level", i32 2}
!2 = !{i32 7, !"uwtable", i32 2}
!3 = !{i32 1, !"override-stack-alignment", i32 16}
!4 = !{!5, !5, i64 0}
!5 = !{!"p1 _ZTS15AVFormatContext", !6, i64 0}
!6 = !{!"any pointer", !7, i64 0}
!7 = !{!"omnipotent char", !8, i64 0}
!8 = !{!"Simple C/C++ TBAA"}
!9 = !{!10, !10, i64 0}
!10 = !{!"p1 _ZTS8AVPacket", !6, i64 0}
!11 = !{!12, !6, i64 24}
!12 = !{!"AVFormatContext", !13, i64 0, !14, i64 8, !15, i64 16, !6, i64 24, !16, i64 32, !17, i64 40, !17, i64 44, !18, i64 48, !17, i64 56, !20, i64 64, !17, i64 72, !21, i64 80, !22, i64 88, !23, i64 96, !23, i64 104, !23, i64 112, !17, i64 120, !17, i64 124, !17, i64 128, !23, i64 136, !23, i64 144, !22, i64 152, !17, i64 160, !17, i64 164, !24, i64 168, !17, i64 176, !17, i64 180, !17, i64 184, !17, i64 188, !25, i64 192, !23, i64 200, !17, i64 208, !17, i64 212, !26, i64 216, !17, i64 232, !17, i64 236, !17, i64 240, !17, i64 244, !23, i64 248, !17, i64 256, !17, i64 260, !17, i64 264, !17, i64 268, !17, i64 272, !17, i64 276, !17, i64 280, !17, i64 284, !17, i64 288, !17, i64 292, !17, i64 296, !17, i64 300, !23, i64 304, !17, i64 312, !17, i64 316, !17, i64 320, !17, i64 324, !17, i64 328, !22, i64 336, !22, i64 344, !22, i64 352, !22, i64 360, !17, i64 368, !27, i64 376, !27, i64 384, !27, i64 392, !27, i64 400, !17, i64 408, !6, i64 416, !6, i64 424, !23, i64 432, !22, i64 440, !6, i64 448, !6, i64 456, !23, i64 464}
!13 = !{!"p1 _ZTS7AVClass", !6, i64 0}
!14 = !{!"p1 _ZTS13AVInputFormat", !6, i64 0}
!15 = !{!"p1 _ZTS14AVOutputFormat", !6, i64 0}
!16 = !{!"p1 _ZTS11AVIOContext", !6, i64 0}
!17 = !{!"int", !7, i64 0}
!18 = !{!"p2 _ZTS8AVStream", !19, i64 0}
!19 = !{!"any p2 pointer", !6, i64 0}
!20 = !{!"p2 _ZTS13AVStreamGroup", !19, i64 0}
!21 = !{!"p2 _ZTS9AVChapter", !19, i64 0}
!22 = !{!"p1 omnipotent char", !6, i64 0}
!23 = !{!"long", !7, i64 0}
!24 = !{!"p2 _ZTS9AVProgram", !19, i64 0}
!25 = !{!"p1 _ZTS12AVDictionary", !6, i64 0}
!26 = !{!"AVIOInterruptCB", !6, i64 0, !6, i64 8}
!27 = !{!"p1 _ZTS7AVCodec", !6, i64 0}
!28 = !{!29, !29, i64 0}
!29 = !{!"p1 _ZTS12WvMuxContext", !6, i64 0}
!30 = !{!31, !17, i64 32}
!31 = !{!"AVPacket", !32, i64 0, !23, i64 8, !23, i64 16, !22, i64 24, !17, i64 32, !17, i64 36, !17, i64 40, !33, i64 48, !17, i64 56, !23, i64 64, !23, i64 72, !6, i64 80, !32, i64 88, !34, i64 96}
!32 = !{!"p1 _ZTS11AVBufferRef", !6, i64 0}
!33 = !{!"p1 _ZTS16AVPacketSideData", !6, i64 0}
!34 = !{!"AVRational", !17, i64 0, !17, i64 4}
!35 = !{!31, !22, i64 24}
!36 = !{!17, !17, i64 0}
!37 = !{!38, !17, i64 16}
!38 = !{!"WvHeader", !17, i64 0, !39, i64 4, !17, i64 8, !17, i64 12, !17, i64 16, !17, i64 20, !17, i64 24, !17, i64 28, !17, i64 32}
!39 = !{!"short", !7, i64 0}
!40 = !{!41, !23, i64 0}
!41 = !{!"WvMuxContext", !23, i64 0}
!42 = !{!12, !16, i64 32}
!43 = !{!44, !17, i64 144}
!44 = !{!"AVIOContext", !13, i64 0, !22, i64 8, !17, i64 16, !22, i64 24, !22, i64 32, !6, i64 40, !6, i64 48, !6, i64 56, !6, i64 64, !23, i64 72, !17, i64 80, !17, i64 84, !17, i64 88, !17, i64 92, !17, i64 96, !23, i64 104, !22, i64 112, !6, i64 120, !6, i64 128, !6, i64 136, !17, i64 144, !17, i64 148, !22, i64 152, !22, i64 160, !6, i64 168, !17, i64 176, !22, i64 184, !23, i64 192, !23, i64 200}
!45 = !{!23, !23, i64 0}
!46 = !{!16, !16, i64 0}
